; ModuleID = 'bench/gromacs/original/dlapy2.cpp.ll'
source_filename = "bench/gromacs/original/dlapy2.cpp.ll"
target datalayout = "e-m:e-p270:32:32-p271:32:32-p272:64:64-i64:64-i128:128-f80:128-n8:16:32:64-S128"
target triple = "x86_64-pc-linux-gnu"

; Function Attrs: mustprogress nofree norecurse nosync nounwind willreturn memory(argmem: read) uwtable
define double @dlapy2_(ptr nocapture noundef readonly %0, ptr nocapture noundef readonly %1) local_unnamed_addr #0 {
  %3 = load double, ptr %0, align 8
  %4 = tail call noundef double @llvm.fabs.f64(double %3)
  %5 = load double, ptr %1, align 8
  %6 = tail call noundef double @llvm.fabs.f64(double %5)
  %7 = fcmp ogt double %4, %6
  %. = select i1 %7, double %4, double %6
  %.21 = select i1 %7, double %6, double %4
  %8 = fcmp olt double %.21, 0x10000000000000
  %9 = fdiv double %.21, %.
  %10 = tail call double @llvm.fmuladd.f64(double %9, double %9, double 1.000000e+00)
  %sqrt = tail call double @llvm.sqrt.f64(double %10)
  %11 = fmul double %., %sqrt
  %.017 = select i1 %8, double %., double %11
  ret double %.017
}

; Function Attrs: mustprogress nocallback nofree nosync nounwind speculatable willreturn memory(none)
declare double @llvm.fmuladd.f64(double, double, double) #1

; Function Attrs: mustprogress nocallback nofree nosync nounwind speculatable willreturn memory(none)
declare double @llvm.fabs.f64(double) #1

; Function Attrs: nocallback nofree nosync nounwind speculatable willreturn memory(none)
declare double @llvm.sqrt.f64(double) #2


!llvm.module.flags = !{!0, !1, !2, !3}

!0 = !{i32 1, !"wchar_size", i32 4}
!1 = !{i32 8, !"PIC Level", i32 2}
!2 = !{i32 7, !"uwtable", i32 2}
!3 = !{i32 7, !"frame-pointer", i32 2}
